target datalayout = "e-m:e-p270:32:32-p271:32:32-p272:64:64-i64:64-i128:128-f80:128-n8:16:32:64-S128"
target triple = "x86_64-pc-linux-gnu"

@hf_btatt_year = internal global i32 0, align 4
@hf_btatt_month = internal global i32 0, align 4
@hf_btatt_day = internal global i32 0, align 4
@hf_btatt_hours = internal global i32 0, align 4
@hf_btatt_minutes = internal global i32 0, align 4
@hf_btatt_seconds = internal global i32 0, align 4

; Function Attrs: null_pointer_is_valid sspstrong uwtable
define internal i32 @add_item_btatt_time(ptr noundef %0, ptr noundef %1, i32 noundef %2) #0 {
  %4 = alloca ptr, align 8
  %5 = alloca ptr, align 8
  %6 = alloca i32, align 4
  store ptr %0, ptr %4, align 8
  store ptr %1, ptr %5, align 8
  store i32 %2, ptr %6, align 4
  %7 = load ptr, ptr %4, align 8
  %8 = load i32, ptr @hf_btatt_year, align 4
  %9 = load ptr, ptr %5, align 8
  %10 = load i32, ptr %6, align 4
  %11 = call ptr @proto_tree_add_item(ptr noundef %7, i32 noundef %8, ptr noundef %9, i32 noundef %10, i32 noundef 2, i32 noundef -2147483648)
  %12 = load i32, ptr %6, align 4
  %13 = add i32 %12, 2
  store i32 %13, ptr %6, align 4
  %14 = load ptr, ptr %4, align 8
  %15 = load i32, ptr @hf_btatt_month, align 4
  %16 = load ptr, ptr %5, align 8
  %17 = load i32, ptr %6, align 4
  %18 = call ptr @proto_tree_add_item(ptr noundef %14, i32 noundef %15, ptr noundef %16, i32 noundef %17, i32 noundef 1, i32 noundef 0)
  %19 = load i32, ptr %6, align 4
  %20 = add i32 %19, 1
  store i32 %20, ptr %6, align 4
  %21 = load ptr, ptr %4, align 8
  %22 = load i32, ptr @hf_btatt_day, align 4
  %23 = load ptr, ptr %5, align 8
  %24 = load i32, ptr %6, align 4
  %25 = call ptr @proto_tree_add_item(ptr noundef %21, i32 noundef %22, ptr noundef %23, i32 noundef %24, i32 noundef 1, i32 noundef 0)
  %26 = load i32, ptr %6, align 4
  %27 = add i32 %26, 1
  store i32 %27, ptr %6, align 4
  %28 = load ptr, ptr %4, align 8
  %29 = load i32, ptr @hf_btatt_hours, align 4
  %30 = load ptr, ptr %5, align 8
  %31 = load i32, ptr %6, align 4
  %32 = call ptr @proto_tree_add_item(ptr noundef %28, i32 noundef %29, ptr noundef %30, i32 noundef %31, i32 noundef 1, i32 noundef 0)
  %33 = load i32, ptr %6, align 4
  %34 = add i32 %33, 1
  store i32 %34, ptr %6, align 4
  %35 = load ptr, ptr %4, align 8
  %36 = load i32, ptr @hf_btatt_minutes, align 4
  %37 = load ptr, ptr %5, align 8
  %38 = load i32, ptr %6, align 4
  %39 = call ptr @proto_tree_add_item(ptr noundef %35, i32 noundef %36, ptr noundef %37, i32 noundef %38, i32 noundef 1, i32 noundef 0)
  %40 = load i32, ptr %6, align 4
  %41 = add i32 %40, 1
  store i32 %41, ptr %6, align 4
  %42 = load ptr, ptr %4, align 8
  %43 = load i32, ptr @hf_btatt_seconds, align 4
  %44 = load ptr, ptr %5, align 8
  %45 = load i32, ptr %6, align 4
  %46 = call ptr @proto_tree_add_item(ptr noundef %42, i32 noundef %43, ptr noundef %44, i32 noundef %45, i32 noundef 1, i32 noundef 0)
  %47 = load i32, ptr %6, align 4
  %48 = add i32 %47, 1
  store i32 %48, ptr %6, align 4
  %49 = load i32, ptr %6, align 4
  ret i32 %49
}