; Function Attrs: null_pointer_is_valid sspstrong uwtable
define internal fastcc noundef i32 @add_item_btatt_time(ptr noundef %0, ptr noundef %1, i32 noundef %2) unnamed_addr #1 {
  %4 = load i32, ptr @hf_btatt_year, align 4
  %5 = tail call ptr @proto_tree_add_item(ptr noundef %0, i32 noundef %4, ptr noundef %1, i32 noundef %2, i32 noundef 2, i32 noundef -2147483648)
  %6 = add i32 %2, 2
  %7 = load i32, ptr @hf_btatt_month, align 4
  %8 = tail call ptr @proto_tree_add_item(ptr noundef %0, i32 noundef %7, ptr noundef %1, i32 noundef %6, i32 noundef 1, i32 noundef 0)
  %9 = add i32 %2, 3
  %10 = load i32, ptr @hf_btatt_day, align 4
  %11 = tail call ptr @proto_tree_add_item(ptr noundef %0, i32 noundef %10, ptr noundef %1, i32 noundef %9, i32 noundef 1, i32 noundef 0)
  %12 = add i32 %2, 4
  %13 = load i32, ptr @hf_btatt_hours, align 4
  %14 = tail call ptr @proto_tree_add_item(ptr noundef %0, i32 noundef %13, ptr noundef %1, i32 noundef %12, i32 noundef 1, i32 noundef 0)
  %15 = add i32 %2, 5
  %16 = load i32, ptr @hf_btatt_minutes, align 4
  %17 = tail call ptr @proto_tree_add_item(ptr noundef %0, i32 noundef %16, ptr noundef %1, i32 noundef %15, i32 noundef 1, i32 noundef 0)
  %18 = add i32 %2, 6
  %19 = load i32, ptr @hf_btatt_seconds, align 4
  %20 = tail call ptr @proto_tree_add_item(ptr noundef %0, i32 noundef %19, ptr noundef %1, i32 noundef %18, i32 noundef 1, i32 noundef 0)
  %21 = add i32 %2, 7
  ret i32 %21
}